target datalayout = "e-m:e-p270:32:32-p271:32:32-p272:64:64-i64:64-i128:128-f80:128-n8:16:32:64-S128"
target triple = "x86_64-pc-linux-gnu"

%struct.backwards_compatibiliity_lua_name = type { ptr, i32 }

@wtap_module_count = external constant i32, align 4
@backwards_compatibility_lua_names = internal global ptr null, align 8
@.str.16 = private unnamed_addr constant [11 x i8] c"TSPREC_SEC\00", align 1
@.str.17 = private unnamed_addr constant [12 x i8] c"TSPREC_DSEC\00", align 1
@.str.18 = private unnamed_addr constant [12 x i8] c"TSPREC_CSEC\00", align 1
@.str.19 = private unnamed_addr constant [12 x i8] c"TSPREC_MSEC\00", align 1
@.str.20 = private unnamed_addr constant [12 x i8] c"TSPREC_USEC\00", align 1
@.str.21 = private unnamed_addr constant [12 x i8] c"TSPREC_NSEC\00", align 1
@.str.22 = private unnamed_addr constant [8 x i8] c"UNKNOWN\00", align 1

; Function Attrs: null_pointer_is_valid sspstrong uwtable
define hidden void @wtap_register_backwards_compatibility_lua_name(ptr noundef %0, i32 noundef %1) #0 {
  %3 = alloca ptr, align 8
  %4 = alloca i32, align 4
  %5 = alloca %struct.backwards_compatibiliity_lua_name, align 8
  store ptr %0, ptr %3, align 8
  store i32 %1, ptr %4, align 4
  call void @llvm.lifetime.start.p0(i64 16, ptr %5) #12
  %6 = load ptr, ptr @backwards_compatibility_lua_names, align 8
  %7 = icmp eq ptr %6, null
  br i1 %7, label %8, label %12

8:                                                ; preds = %2
  %9 = load i32, ptr @wtap_module_count, align 4
  %10 = mul i32 %9, 2
  %11 = call ptr @g_array_sized_new(i32 noundef 0, i32 noundef 1, i32 noundef 16, i32 noundef %10)
  store ptr %11, ptr @backwards_compatibility_lua_names, align 8
  call void @wtap_register_backwards_compatibility_lua_name(ptr noundef @.str.16, i32 noundef 0)
  call void @wtap_register_backwards_compatibility_lua_name(ptr noundef @.str.17, i32 noundef 1)
  call void @wtap_register_backwards_compatibility_lua_name(ptr noundef @.str.18, i32 noundef 2)
  call void @wtap_register_backwards_compatibility_lua_name(ptr noundef @.str.19, i32 noundef 3)
  call void @wtap_register_backwards_compatibility_lua_name(ptr noundef @.str.20, i32 noundef 6)
  call void @wtap_register_backwards_compatibility_lua_name(ptr noundef @.str.21, i32 noundef 9)
  call void @wtap_register_backwards_compatibility_lua_name(ptr noundef @.str.22, i32 noundef -1)
  br label %12

12:                                               ; preds = %8, %2
  %13 = load ptr, ptr %3, align 8
  %14 = getelementptr inbounds nuw %struct.backwards_compatibiliity_lua_name, ptr %5, i32 0, i32 0
  store ptr %13, ptr %14, align 8
  %15 = load i32, ptr %4, align 4
  %16 = getelementptr inbounds nuw %struct.backwards_compatibiliity_lua_name, ptr %5, i32 0, i32 1
  store i32 %15, ptr %16, align 8
  %17 = load ptr, ptr @backwards_compatibility_lua_names, align 8
  %18 = call ptr @g_array_append_vals(ptr noundef %17, ptr noundef %5, i32 noundef 1)
  call void @llvm.lifetime.end.p0(i64 16, ptr %5) #12
  ret void
}