; Function Attrs: null_pointer_is_valid sspstrong uwtable
define hidden void @wtap_register_backwards_compatibility_lua_name(ptr noundef %0, i32 noundef %1) local_unnamed_addr #0 {
  %3 = alloca %struct.backwards_compatibiliity_lua_name, align 8
  call void @llvm.lifetime.start.p0(i64 16, ptr nonnull %3) #24
  %4 = load ptr, ptr @backwards_compatibility_lua_names, align 8
  %5 = icmp eq ptr %4, null
  br i1 %5, label %6, label %10

6:                                                ; preds = %2
  %7 = load i32, ptr @wtap_module_count, align 4
  %8 = shl i32 %7, 1
  %9 = tail call ptr @g_array_sized_new(i32 noundef 0, i32 noundef 1, i32 noundef 16, i32 noundef %8)
  store ptr %9, ptr @backwards_compatibility_lua_names, align 8
  tail call void @wtap_register_backwards_compatibility_lua_name(ptr noundef nonnull @.str.16, i32 noundef 0)
  tail call void @wtap_register_backwards_compatibility_lua_name(ptr noundef nonnull @.str.17, i32 noundef 1)
  tail call void @wtap_register_backwards_compatibility_lua_name(ptr noundef nonnull @.str.18, i32 noundef 2)
  tail call void @wtap_register_backwards_compatibility_lua_name(ptr noundef nonnull @.str.19, i32 noundef 3)
  tail call void @wtap_register_backwards_compatibility_lua_name(ptr noundef nonnull @.str.20, i32 noundef 6)
  tail call void @wtap_register_backwards_compatibility_lua_name(ptr noundef nonnull @.str.21, i32 noundef 9)
  tail call void @wtap_register_backwards_compatibility_lua_name(ptr noundef nonnull @.str.22, i32 noundef -1)
  %.pre = load ptr, ptr @backwards_compatibility_lua_names, align 8
  br label %10

10:                                               ; preds = %6, %2
  %11 = phi ptr [ %.pre, %6 ], [ %4, %2 ]
  store ptr %0, ptr %3, align 8
  %12 = getelementptr inbounds nuw i8, ptr %3, i64 8
  store i32 %1, ptr %12, align 8
  %13 = call ptr @g_array_append_vals(ptr noundef %11, ptr noundef nonnull %3, i32 noundef 1)
  call void @llvm.lifetime.end.p0(i64 16, ptr nonnull %3) #24
  ret void
}